target datalayout = "e-m:e-p270:32:32-p271:32:32-p272:64:64-i64:64-i128:128-f80:128-n8:16:32:64-S128"
target triple = "x86_64-pc-linux-gnu"

%struct._zval_struct = type { %union._zend_value, %union.anon.0, %union.anon.3 }
%union._zend_value = type { i64 }
%union.anon.0 = type { i32 }
%union.anon.3 = type { i32 }
%struct._zend_refcounted_h = type { i32, %union.anon }
%union.anon = type { i32 }
%struct.dom_xpath_object = type { %struct.php_dom_xpath_callbacks, i8, %struct._dom_object }
%struct.php_dom_xpath_callbacks = type { ptr, ptr, ptr }
%struct._dom_object = type { ptr, ptr, ptr, %struct._zend_object }
%struct._zend_object = type { %struct._zend_refcounted_h, i32, i32, ptr, ptr, ptr, [1 x %struct._zval_struct] }
%struct._zend_execute_data = type { ptr, ptr, ptr, ptr, %struct._zval_struct, ptr, ptr, ptr, ptr }
%struct.anon.1 = type { i8, i8, %union.anon.2 }
%union.anon.2 = type { i16 }

; Function Attrs: alwaysinline nounwind uwtable
define internal zeroext i8 @zval_get_type(ptr noundef %0) #6 {
  %2 = alloca ptr, align 8
  store ptr %0, ptr %2, align 8, !tbaa !29
  %3 = load ptr, ptr %2, align 8, !tbaa !29
  %4 = getelementptr inbounds nuw %struct._zval_struct, ptr %3, i32 0, i32 1
  %5 = getelementptr inbounds nuw %struct.anon.1, ptr %4, i32 0, i32 0
  %6 = load i8, ptr %5, align 8, !tbaa !35
  ret i8 %6
}

; Function Attrs: alwaysinline nounwind uwtable
define internal zeroext i1 @zend_parse_arg_array_ht_or_str(ptr noundef %0, ptr noundef %1, ptr noundef %2, i1 noundef zeroext %3, i32 noundef %4) #6 {
  %6 = alloca i1, align 1
  %7 = alloca ptr, align 8
  %8 = alloca ptr, align 8
  %9 = alloca ptr, align 8
  %10 = alloca i8, align 1
  %11 = alloca i32, align 4
  store ptr %0, ptr %7, align 8, !tbaa !29
  store ptr %1, ptr %8, align 8, !tbaa !136
  store ptr %2, ptr %9, align 8, !tbaa !137
  %12 = zext i1 %3 to i8
  store i8 %12, ptr %10, align 1, !tbaa !32
  store i32 %4, ptr %11, align 4, !tbaa !98
  %13 = load ptr, ptr %7, align 8, !tbaa !29
  %14 = call zeroext i8 @zval_get_type(ptr noundef %13)
  %15 = zext i8 %14 to i32
  %16 = icmp eq i32 %15, 6
  %17 = xor i1 %16, true
  %18 = xor i1 %17, true
  %19 = zext i1 %18 to i32
  %20 = sext i32 %19 to i64
  %21 = call i64 @llvm.expect.i64(i64 %20, i64 1)
  %22 = icmp ne i64 %21, 0
  br i1 %22, label %23, label %29

23:                                               ; preds = %5
  %24 = load ptr, ptr %8, align 8, !tbaa !136
  store ptr null, ptr %24, align 8, !tbaa !127
  %25 = load ptr, ptr %7, align 8, !tbaa !29
  %26 = getelementptr inbounds nuw %struct._zval_struct, ptr %25, i32 0, i32 0
  %27 = load ptr, ptr %26, align 8, !tbaa !35
  %28 = load ptr, ptr %9, align 8, !tbaa !137
  store ptr %27, ptr %28, align 8, !tbaa !135
  br label %71

29:                                               ; preds = %5
  %30 = load ptr, ptr %7, align 8, !tbaa !29
  %31 = call zeroext i8 @zval_get_type(ptr noundef %30)
  %32 = zext i8 %31 to i32
  %33 = icmp eq i32 %32, 7
  %34 = xor i1 %33, true
  %35 = xor i1 %34, true
  %36 = zext i1 %35 to i32
  %37 = sext i32 %36 to i64
  %38 = call i64 @llvm.expect.i64(i64 %37, i64 1)
  %39 = icmp ne i64 %38, 0
  br i1 %39, label %40, label %46

40:                                               ; preds = %29
  %41 = load ptr, ptr %7, align 8, !tbaa !29
  %42 = getelementptr inbounds nuw %struct._zval_struct, ptr %41, i32 0, i32 0
  %43 = load ptr, ptr %42, align 8, !tbaa !35
  %44 = load ptr, ptr %8, align 8, !tbaa !136
  store ptr %43, ptr %44, align 8, !tbaa !127
  %45 = load ptr, ptr %9, align 8, !tbaa !137
  store ptr null, ptr %45, align 8, !tbaa !135
  br label %70

46:                                               ; preds = %29
  %47 = load i8, ptr %10, align 1, !tbaa !32, !range !93, !noundef !94
  %48 = trunc i8 %47 to i1
  br i1 %48, label %49, label %63

49:                                               ; preds = %46
  %50 = load ptr, ptr %7, align 8, !tbaa !29
  %51 = call zeroext i8 @zval_get_type(ptr noundef %50)
  %52 = zext i8 %51 to i32
  %53 = icmp eq i32 %52, 1
  %54 = xor i1 %53, true
  %55 = xor i1 %54, true
  %56 = zext i1 %55 to i32
  %57 = sext i32 %56 to i64
  %58 = call i64 @llvm.expect.i64(i64 %57, i64 1)
  %59 = icmp ne i64 %58, 0
  br i1 %59, label %60, label %63

60:                                               ; preds = %49
  %61 = load ptr, ptr %8, align 8, !tbaa !136
  store ptr null, ptr %61, align 8, !tbaa !127
  %62 = load ptr, ptr %9, align 8, !tbaa !137
  store ptr null, ptr %62, align 8, !tbaa !135
  br label %69

63:                                               ; preds = %49, %46
  %64 = load ptr, ptr %8, align 8, !tbaa !136
  store ptr null, ptr %64, align 8, !tbaa !127
  %65 = load ptr, ptr %7, align 8, !tbaa !29
  %66 = load ptr, ptr %9, align 8, !tbaa !137
  %67 = load i32, ptr %11, align 4, !tbaa !98
  %68 = call zeroext i1 @zend_parse_arg_str_slow(ptr noundef %65, ptr noundef %66, i32 noundef %67)
  store i1 %68, ptr %6, align 1
  br label %72

69:                                               ; preds = %60
  br label %70

70:                                               ; preds = %69, %40
  br label %71

71:                                               ; preds = %70, %23
  store i1 true, ptr %6, align 1
  br label %72

72:                                               ; preds = %71, %63
  %73 = load i1, ptr %6, align 1
  ret i1 %73
}

; Function Attrs: inlinehint nounwind uwtable
define internal ptr @php_xpath_obj_from_obj(ptr noundef %0) #2 {
  %2 = alloca ptr, align 8
  store ptr %0, ptr %2, align 8, !tbaa !4
  %3 = load ptr, ptr %2, align 8, !tbaa !4
  %4 = getelementptr inbounds i8, ptr %3, i64 -32
  %5 = getelementptr inbounds i8, ptr %4, i64 -24
  ret ptr %5
}

; Function Attrs: nounwind uwtable
define hidden void @zim_DOMXPath_registerPhpFunctions(ptr noundef %0, ptr noundef %1) #0 {
  %3 = alloca ptr, align 8
  %4 = alloca ptr, align 8
  %5 = alloca ptr, align 8
  %6 = alloca ptr, align 8
  %7 = alloca ptr, align 8
  %8 = alloca i32, align 4
  %9 = alloca i32, align 4
  %10 = alloca i32, align 4
  %11 = alloca i32, align 4
  %12 = alloca i32, align 4
  %13 = alloca ptr, align 8
  %14 = alloca ptr, align 8
  %15 = alloca i32, align 4
  %16 = alloca ptr, align 8
  %17 = alloca i8, align 1
  %18 = alloca i8, align 1
  %19 = alloca i32, align 4
  %20 = alloca i32, align 4
  store ptr %0, ptr %3, align 8, !tbaa !27
  store ptr %1, ptr %4, align 8, !tbaa !29
  call void @llvm.lifetime.start.p0(i64 8, ptr %5) #13
  %21 = load ptr, ptr %3, align 8, !tbaa !27
  %22 = getelementptr inbounds nuw %struct._zend_execute_data, ptr %21, i32 0, i32 4
  %23 = getelementptr inbounds nuw %struct._zval_struct, ptr %22, i32 0, i32 0
  %24 = load ptr, ptr %23, align 8, !tbaa !35
  %25 = call ptr @php_xpath_obj_from_obj(ptr noundef %24)
  store ptr %25, ptr %5, align 8, !tbaa !9
  call void @llvm.lifetime.start.p0(i64 8, ptr %6) #13
  store ptr null, ptr %6, align 8, !tbaa !135
  call void @llvm.lifetime.start.p0(i64 8, ptr %7) #13
  store ptr null, ptr %7, align 8, !tbaa !127
  br label %26

26:                                               ; preds = %2
  call void @llvm.lifetime.start.p0(i64 4, ptr %8) #13
  store i32 0, ptr %8, align 4, !tbaa !98
  call void @llvm.lifetime.start.p0(i64 4, ptr %9) #13
  store i32 0, ptr %9, align 4, !tbaa !98
  call void @llvm.lifetime.start.p0(i64 4, ptr %10) #13
  store i32 1, ptr %10, align 4, !tbaa !98
  call void @llvm.lifetime.start.p0(i64 4, ptr %11) #13
  %27 = load ptr, ptr %3, align 8, !tbaa !27
  %28 = getelementptr inbounds nuw %struct._zend_execute_data, ptr %27, i32 0, i32 4
  %29 = getelementptr inbounds nuw %struct._zval_struct, ptr %28, i32 0, i32 2
  %30 = load i32, ptr %29, align 4, !tbaa !35
  store i32 %30, ptr %11, align 4, !tbaa !98
  call void @llvm.lifetime.start.p0(i64 4, ptr %12) #13
  store i32 0, ptr %12, align 4, !tbaa !98
  call void @llvm.lifetime.start.p0(i64 8, ptr %13) #13
  call void @llvm.lifetime.start.p0(i64 8, ptr %14) #13
  store ptr null, ptr %14, align 8, !tbaa !29
  call void @llvm.lifetime.start.p0(i64 4, ptr %15) #13
  store i32 0, ptr %15, align 4, !tbaa !98
  call void @llvm.lifetime.start.p0(i64 8, ptr %16) #13
  store ptr null, ptr %16, align 8, !tbaa !97
  call void @llvm.lifetime.start.p0(i64 1, ptr %17) #13
  store i8 0, ptr %17, align 1, !tbaa !32
  call void @llvm.lifetime.start.p0(i64 1, ptr %18) #13
  store i8 0, ptr %18, align 1, !tbaa !32
  call void @llvm.lifetime.start.p0(i64 4, ptr %19) #13
  store i32 0, ptr %19, align 4, !tbaa !98
  br label %31

31:                                               ; preds = %26
  %32 = load i32, ptr %11, align 4, !tbaa !98
  %33 = load i32, ptr %9, align 4, !tbaa !98
  %34 = icmp ult i32 %32, %33
  %35 = xor i1 %34, true
  %36 = xor i1 %35, true
  %37 = zext i1 %36 to i32
  %38 = sext i32 %37 to i64
  %39 = call i64 @llvm.expect.i64(i64 %38, i64 0)
  %40 = icmp ne i64 %39, 0
  br i1 %40, label %51, label %41

41:                                               ; preds = %31
  %42 = load i32, ptr %11, align 4, !tbaa !98
  %43 = load i32, ptr %10, align 4, !tbaa !98
  %44 = icmp ugt i32 %42, %43
  %45 = xor i1 %44, true
  %46 = xor i1 %45, true
  %47 = zext i1 %46 to i32
  %48 = sext i32 %47 to i64
  %49 = call i64 @llvm.expect.i64(i64 %48, i64 0)
  %50 = icmp ne i64 %49, 0
  br i1 %50, label %51, label %54

51:                                               ; preds = %41, %31
  %52 = load i32, ptr %9, align 4, !tbaa !98
  %53 = load i32, ptr %10, align 4, !tbaa !98
  call void @zend_wrong_parameters_count_error(i32 noundef %52, i32 noundef %53)
  store i32 1, ptr %19, align 4, !tbaa !98
  br label %118

54:                                               ; preds = %41
  %55 = load ptr, ptr %3, align 8, !tbaa !27
  %56 = getelementptr inbounds %struct._zval_struct, ptr %55, i64 4
  store ptr %56, ptr %13, align 8, !tbaa !29
  store i8 1, ptr %18, align 1, !tbaa !32
  %57 = load i32, ptr %12, align 4, !tbaa !98
  %58 = add i32 %57, 1
  store i32 %58, ptr %12, align 4, !tbaa !98
  %59 = load i32, ptr %12, align 4, !tbaa !98
  %60 = load i32, ptr %9, align 4, !tbaa !98
  %61 = icmp ule i32 %59, %60
  br i1 %61, label %67, label %62

62:                                               ; preds = %54
  %63 = load i8, ptr %18, align 1, !tbaa !32, !range !93, !noundef !94
  %64 = trunc i8 %63 to i1
  %65 = zext i1 %64 to i32
  %66 = icmp eq i32 %65, 1
  br label %67

67:                                               ; preds = %62, %54
  %68 = phi i1 [ true, %54 ], [ %66, %62 ]
  call void @llvm.assume(i1 %68)
  %69 = load i32, ptr %12, align 4, !tbaa !98
  %70 = load i32, ptr %9, align 4, !tbaa !98
  %71 = icmp ugt i32 %69, %70
  br i1 %71, label %77, label %72

72:                                               ; preds = %67
  %73 = load i8, ptr %18, align 1, !tbaa !32, !range !93, !noundef !94
  %74 = trunc i8 %73 to i1
  %75 = zext i1 %74 to i32
  %76 = icmp eq i32 %75, 0
  br label %77

77:                                               ; preds = %72, %67
  %78 = phi i1 [ true, %67 ], [ %76, %72 ]
  call void @llvm.assume(i1 %78)
  %79 = load i8, ptr %18, align 1, !tbaa !32, !range !93, !noundef !94
  %80 = trunc i8 %79 to i1
  br i1 %80, label %81, label %93

81:                                               ; preds = %77
  %82 = load i32, ptr %12, align 4, !tbaa !98
  %83 = load i32, ptr %11, align 4, !tbaa !98
  %84 = icmp ugt i32 %82, %83
  %85 = xor i1 %84, true
  %86 = xor i1 %85, true
  %87 = zext i1 %86 to i32
  %88 = sext i32 %87 to i64
  %89 = call i64 @llvm.expect.i64(i64 %88, i64 0)
  %90 = icmp ne i64 %89, 0
  br i1 %90, label %91, label %92

91:                                               ; preds = %81
  br label %118

92:                                               ; preds = %81
  br label %93

93:                                               ; preds = %92, %77
  %94 = load ptr, ptr %13, align 8, !tbaa !29
  %95 = getelementptr inbounds nuw %struct._zval_struct, ptr %94, i32 1
  store ptr %95, ptr %13, align 8, !tbaa !29
  %96 = load ptr, ptr %13, align 8, !tbaa !29
  store ptr %96, ptr %14, align 8, !tbaa !29
  %97 = load ptr, ptr %14, align 8, !tbaa !29
  %98 = load i32, ptr %12, align 4, !tbaa !98
  %99 = call zeroext i1 @zend_parse_arg_array_ht_or_str(ptr noundef %97, ptr noundef %7, ptr noundef %6, i1 noundef zeroext true, i32 noundef %98)
  %100 = xor i1 %99, true
  %101 = xor i1 %100, true
  %102 = xor i1 %101, true
  %103 = zext i1 %102 to i32
  %104 = sext i32 %103 to i64
  %105 = call i64 @llvm.expect.i64(i64 %104, i64 0)
  %106 = icmp ne i64 %105, 0
  br i1 %106, label %107, label %108

107:                                              ; preds = %93
  store i32 27, ptr %15, align 4, !tbaa !98
  store i32 9, ptr %19, align 4, !tbaa !98
  br label %118

108:                                              ; preds = %93
  %109 = load i32, ptr %12, align 4, !tbaa !98
  %110 = load i32, ptr %10, align 4, !tbaa !98
  %111 = icmp eq i32 %109, %110
  br i1 %111, label %115, label %112

112:                                              ; preds = %108
  %113 = load i32, ptr %10, align 4, !tbaa !98
  %114 = icmp eq i32 %113, -1
  br label %115

115:                                              ; preds = %112, %108
  %116 = phi i1 [ true, %108 ], [ %114, %112 ]
  call void @llvm.assume(i1 %116)
  br label %117

117:                                              ; preds = %115
  br label %118

118:                                              ; preds = %117, %107, %91, %51
  %119 = load i32, ptr %19, align 4, !tbaa !98
  %120 = icmp ne i32 %119, 0
  %121 = xor i1 %120, true
  %122 = xor i1 %121, true
  %123 = zext i1 %122 to i32
  %124 = sext i32 %123 to i64
  %125 = call i64 @llvm.expect.i64(i64 %124, i64 0)
  %126 = icmp ne i64 %125, 0
  br i1 %126, label %127, label %133

127:                                              ; preds = %118
  %128 = load i32, ptr %19, align 4, !tbaa !98
  %129 = load i32, ptr %12, align 4, !tbaa !98
  %130 = load ptr, ptr %16, align 8, !tbaa !97
  %131 = load i32, ptr %15, align 4, !tbaa !98
  %132 = load ptr, ptr %14, align 8, !tbaa !29
  call void @zend_wrong_parameter_error(i32 noundef %128, i32 noundef %129, ptr noundef %130, i32 noundef %131, ptr noundef %132)
  store i32 1, ptr %20, align 4
  br label %134

133:                                              ; preds = %118
  store i32 0, ptr %20, align 4
  br label %134

134:                                              ; preds = %133, %127
  call void @llvm.lifetime.end.p0(i64 4, ptr %19) #13
  call void @llvm.lifetime.end.p0(i64 1, ptr %18) #13
  call void @llvm.lifetime.end.p0(i64 1, ptr %17) #13
  call void @llvm.lifetime.end.p0(i64 8, ptr %16) #13
  call void @llvm.lifetime.end.p0(i64 4, ptr %15) #13
  call void @llvm.lifetime.end.p0(i64 8, ptr %14) #13
  call void @llvm.lifetime.end.p0(i64 8, ptr %13) #13
  call void @llvm.lifetime.end.p0(i64 4, ptr %12) #13
  call void @llvm.lifetime.end.p0(i64 4, ptr %11) #13
  call void @llvm.lifetime.end.p0(i64 4, ptr %10) #13
  call void @llvm.lifetime.end.p0(i64 4, ptr %9) #13
  call void @llvm.lifetime.end.p0(i64 4, ptr %8) #13
  %135 = load i32, ptr %20, align 4
  switch i32 %135, label %148 [
    i32 0, label %136
  ]

136:                                              ; preds = %134
  br label %137

137:                                              ; preds = %136
  br label %138

138:                                              ; preds = %137
  %139 = load ptr, ptr %5, align 8, !tbaa !9
  %140 = getelementptr inbounds nuw %struct.dom_xpath_object, ptr %139, i32 0, i32 0
  %141 = load ptr, ptr %5, align 8, !tbaa !9
  %142 = getelementptr inbounds nuw %struct.dom_xpath_object, ptr %141, i32 0, i32 2
  %143 = getelementptr inbounds nuw %struct._dom_object, ptr %142, i32 0, i32 0
  %144 = load ptr, ptr %143, align 8, !tbaa !11
  %145 = load ptr, ptr %6, align 8, !tbaa !135
  %146 = load ptr, ptr %7, align 8, !tbaa !127
  %147 = call i32 @php_dom_xpath_callbacks_update_method_handler(ptr noundef %140, ptr noundef %144, ptr noundef null, ptr noundef %145, ptr noundef %146, i32 noundef 0, ptr noundef null)
  store i32 0, ptr %20, align 4
  br label %148

148:                                              ; preds = %138, %134
  call void @llvm.lifetime.end.p0(i64 8, ptr %7) #13
  call void @llvm.lifetime.end.p0(i64 8, ptr %6) #13
  call void @llvm.lifetime.end.p0(i64 8, ptr %5) #13
  %149 = load i32, ptr %20, align 4
  switch i32 %149, label %151 [
    i32 0, label %150
    i32 1, label %150
  ]

150:                                              ; preds = %148, %148
  ret void

151:                                              ; preds = %148
  unreachable
}