; Function Attrs: nounwind uwtable
define hidden void @zim_DOMXPath_registerPhpFunctions(ptr noundef %0, ptr noundef readnone captures(none) %1) local_unnamed_addr #0 {
  %3 = alloca ptr, align 8
  %4 = getelementptr inbounds nuw i8, ptr %0, i64 32
  %5 = load ptr, ptr %4, align 8, !tbaa !21
  %6 = getelementptr inbounds i8, ptr %5, i64 -56
  call void @llvm.lifetime.start.p0(i64 8, ptr nonnull %3) #12
  store ptr null, ptr %3, align 8, !tbaa !124
  %7 = getelementptr inbounds nuw i8, ptr %0, i64 44
  %8 = load i32, ptr %7, align 4, !tbaa !21
  %9 = icmp ugt i32 %8, 1
  br i1 %9, label %.thread65, label %10, !prof !54

.thread65:                                        ; preds = %2
  tail call void @zend_wrong_parameters_count_error(i32 noundef 0, i32 noundef 1) #12
  br label %21

10:                                               ; preds = %2
  %11 = icmp eq i32 %8, 0
  br i1 %11, label %.critedge, label %12, !prof !54

12:                                               ; preds = %10
  %13 = getelementptr inbounds nuw i8, ptr %0, i64 80
  %14 = getelementptr inbounds nuw i8, ptr %0, i64 88
  %15 = load i8, ptr %14, align 8, !tbaa !21
  switch i8 %15, label %zend_parse_arg_array_ht_or_str.exit [
    i8 6, label %16
    i8 7, label %18
    i8 1, label %.critedge
  ], !prof !125

16:                                               ; preds = %12
  %17 = load ptr, ptr %13, align 8, !tbaa !21
  store ptr %17, ptr %3, align 8, !tbaa !124
  br label %.critedge

18:                                               ; preds = %12
  %19 = load ptr, ptr %13, align 8, !tbaa !21
  br label %.critedge

zend_parse_arg_array_ht_or_str.exit:              ; preds = %12
  %20 = call zeroext i1 @zend_parse_arg_str_slow(ptr noundef nonnull %13, ptr noundef nonnull %3, i32 noundef 1) #12
  %cond.fr = freeze i1 %20
  br i1 %cond.fr, label %zend_parse_arg_array_ht_or_str.exit..critedge_crit_edge, label %21, !prof !85

zend_parse_arg_array_ht_or_str.exit..critedge_crit_edge: ; preds = %zend_parse_arg_array_ht_or_str.exit
  %.pre = load ptr, ptr %3, align 8, !tbaa !124
  br label %.critedge

21:                                               ; preds = %zend_parse_arg_array_ht_or_str.exit, %.thread65
  %.03475 = phi i32 [ 1, %.thread65 ], [ 9, %zend_parse_arg_array_ht_or_str.exit ]
  %.03574 = phi i32 [ 0, %.thread65 ], [ 1, %zend_parse_arg_array_ht_or_str.exit ]
  %.03673 = phi i32 [ 0, %.thread65 ], [ 27, %zend_parse_arg_array_ht_or_str.exit ]
  %.03772 = phi ptr [ null, %.thread65 ], [ %13, %zend_parse_arg_array_ht_or_str.exit ]
  call void @zend_wrong_parameter_error(i32 noundef %.03475, i32 noundef %.03574, ptr noundef null, i32 noundef %.03673, ptr noundef %.03772) #12
  br label %26

.critedge:                                        ; preds = %12, %zend_parse_arg_array_ht_or_str.exit..critedge_crit_edge, %18, %16, %10
  %22 = phi ptr [ null, %10 ], [ %17, %16 ], [ null, %18 ], [ %.pre, %zend_parse_arg_array_ht_or_str.exit..critedge_crit_edge ], [ null, %12 ]
  %.064 = phi ptr [ null, %10 ], [ null, %16 ], [ %19, %18 ], [ null, %zend_parse_arg_array_ht_or_str.exit..critedge_crit_edge ], [ null, %12 ]
  %23 = getelementptr inbounds i8, ptr %5, i64 -24
  %24 = load ptr, ptr %23, align 8, !tbaa !4
  %25 = call i32 @php_dom_xpath_callbacks_update_method_handler(ptr noundef nonnull %6, ptr noundef %24, ptr noundef null, ptr noundef %22, ptr noundef %.064, i32 noundef 0, ptr noundef null) #12
  br label %26

26:                                               ; preds = %21, %.critedge
  call void @llvm.lifetime.end.p0(i64 8, ptr nonnull %3) #12
  ret void
}